target datalayout = "e-m:e-p270:32:32-p271:32:32-p272:64:64-i64:64-i128:128-f80:128-n8:16:32:64-S128"
target triple = "x86_64-unknown-linux-gnu"

%"class.testing::ThrowingValue" = type { i32 }

@_ZN4absl12_GLOBAL__N_110kSmallSizeE = internal constant i64 12, align 8
@_ZN4absl12_GLOBAL__N_110kLargeSizeE = internal constant i64 50, align 8

; Function Attrs: mustprogress nounwind uwtable
define linkonce_odr dso_local void @_ZN7testing19exceptions_internal13TrackedObjectD2Ev(ptr noundef nonnull align 1 dereferenceable(1) %this) unnamed_addr #7 comdat align 2 personality ptr @__gxx_personality_v0 {
entry:
  %this.addr = alloca ptr, align 8
  store ptr %this, ptr %this.addr, align 8
  %this1 = load ptr, ptr %this.addr, align 8
  invoke void @_ZN7testing19exceptions_internal18ConstructorTracker16ObjectDestructedEPv(ptr noundef %this1)
          to label %invoke.cont unwind label %terminate.lpad

invoke.cont:                                      ; preds = %entry
  ret void

terminate.lpad:                                   ; preds = %entry
  %0 = landingpad { ptr, i32 }
          catch ptr null
  %1 = extractvalue { ptr, i32 } %0, 0
  call void @__clang_call_terminate(ptr %1) #18
  unreachable
}

; Function Attrs: mustprogress nounwind uwtable
define linkonce_odr dso_local void @_ZN7testing13ThrowingValueILNS_8TypeSpecE0EED2Ev(ptr noundef nonnull align 4 dereferenceable(4) %this) unnamed_addr #7 comdat align 2 {
entry:
  %this.addr = alloca ptr, align 8
  store ptr %this, ptr %this.addr, align 8
  %this1 = load ptr, ptr %this.addr, align 8
  call void @_ZN7testing19exceptions_internal13TrackedObjectD2Ev(ptr noundef nonnull align 1 dereferenceable(1) %this1) #3
  ret void
}

; Function Attrs: mustprogress uwtable
define internal void @_ZN4absl12_GLOBAL__N_151FixedArrayExceptionSafety_SizeValueConstructor_Test8TestBodyEv(ptr noundef nonnull align 8 dereferenceable(16) %this) unnamed_addr #4 align 2 personality ptr @__gxx_personality_v0 {
entry:
  %this.addr = alloca ptr, align 8
  %ref.tmp = alloca %"class.testing::ThrowingValue", align 4
  %exn.slot = alloca ptr, align 8
  %ehselector.slot = alloca i32, align 4
  %ref.tmp2 = alloca %"class.testing::ThrowingValue", align 4
  store ptr %this, ptr %this.addr, align 8
  call void @_ZN7testing13ThrowingValueILNS_8TypeSpecE0EEC2Ev(ptr noundef nonnull align 4 dereferenceable(4) %ref.tmp)
  invoke void @_ZN7testing16TestThrowingCtorIN4absl10FixedArrayINS_13ThrowingValueILNS_8TypeSpecE0EEELm25ESaIS5_EEEJRKmS5_EEEvDpOT0_(ptr noundef nonnull align 8 dereferenceable(8) @_ZN4absl12_GLOBAL__N_110kSmallSizeE, ptr noundef nonnull align 4 dereferenceable(4) %ref.tmp)
          to label %invoke.cont unwind label %lpad

invoke.cont:                                      ; preds = %entry
  call void @_ZN7testing13ThrowingValueILNS_8TypeSpecE0EED2Ev(ptr noundef nonnull align 4 dereferenceable(4) %ref.tmp) #3
  call void @_ZN7testing13ThrowingValueILNS_8TypeSpecE0EEC2Ev(ptr noundef nonnull align 4 dereferenceable(4) %ref.tmp2)
  invoke void @_ZN7testing16TestThrowingCtorIN4absl10FixedArrayINS_13ThrowingValueILNS_8TypeSpecE0EEELm25ESaIS5_EEEJRKmS5_EEEvDpOT0_(ptr noundef nonnull align 8 dereferenceable(8) @_ZN4absl12_GLOBAL__N_110kLargeSizeE, ptr noundef nonnull align 4 dereferenceable(4) %ref.tmp2)
          to label %invoke.cont4 unwind label %lpad3

invoke.cont4:                                     ; preds = %invoke.cont
  call void @_ZN7testing13ThrowingValueILNS_8TypeSpecE0EED2Ev(ptr noundef nonnull align 4 dereferenceable(4) %ref.tmp2) #3
  ret void

lpad:                                             ; preds = %entry
  %0 = landingpad { ptr, i32 }
          cleanup
  %1 = extractvalue { ptr, i32 } %0, 0
  store ptr %1, ptr %exn.slot, align 8
  %2 = extractvalue { ptr, i32 } %0, 1
  store i32 %2, ptr %ehselector.slot, align 4
  call void @_ZN7testing13ThrowingValueILNS_8TypeSpecE0EED2Ev(ptr noundef nonnull align 4 dereferenceable(4) %ref.tmp) #3
  br label %eh.resume

lpad3:                                            ; preds = %invoke.cont
  %3 = landingpad { ptr, i32 }
          cleanup
  %4 = extractvalue { ptr, i32 } %3, 0
  store ptr %4, ptr %exn.slot, align 8
  %5 = extractvalue { ptr, i32 } %3, 1
  store i32 %5, ptr %ehselector.slot, align 4
  call void @_ZN7testing13ThrowingValueILNS_8TypeSpecE0EED2Ev(ptr noundef nonnull align 4 dereferenceable(4) %ref.tmp2) #3
  br label %eh.resume

eh.resume:                                        ; preds = %lpad3, %lpad
  %exn = load ptr, ptr %exn.slot, align 8
  %sel = load i32, ptr %ehselector.slot, align 4
  %lpad.val = insertvalue { ptr, i32 } poison, ptr %exn, 0
  %lpad.val5 = insertvalue { ptr, i32 } %lpad.val, i32 %sel, 1
  resume { ptr, i32 } %lpad.val5
}